target datalayout = "e-m:e-p270:32:32-p271:32:32-p272:64:64-i64:64-i128:128-f80:128-n8:16:32:64-S128"
target triple = "x86_64-pc-linux-gnu"

%"class.grpc_core::Timestamp" = type { i64 }
%"class.std::chrono::duration" = type { i64 }
%"class.grpc_core::Duration" = type { i64 }

; Function Attrs: mustprogress nounwind uwtable
define linkonce_odr void @_ZN9grpc_core9TimestampC2El(ptr noundef nonnull align 8 dereferenceable(8) %0, i64 noundef %1) unnamed_addr #10 comdat align 2 {
  %3 = alloca ptr, align 8
  %4 = alloca i64, align 8
  store ptr %0, ptr %3, align 8, !tbaa !76
  store i64 %1, ptr %4, align 8, !tbaa !3
  %5 = load ptr, ptr %3, align 8
  %6 = getelementptr inbounds nuw %"class.grpc_core::Timestamp", ptr %5, i32 0, i32 0
  %7 = load i64, ptr %4, align 8, !tbaa !3
  store i64 %7, ptr %6, align 8, !tbaa !78
  ret void
}

; Function Attrs: inlinehint mustprogress nounwind uwtable
define linkonce_odr noundef i64 @_ZN9grpc_core13SaturatingAddIlEET_S1_S1_(i64 noundef %0, i64 noundef %1) #8 comdat {
  %3 = alloca i64, align 8
  %4 = alloca i64, align 8
  %5 = alloca i64, align 8
  store i64 %0, ptr %4, align 8, !tbaa !3
  store i64 %1, ptr %5, align 8, !tbaa !3
  %6 = load i64, ptr %4, align 8, !tbaa !3
  %7 = icmp sgt i64 %6, 0
  br i1 %7, label %8, label %17

8:                                                ; preds = %2
  %9 = load i64, ptr %5, align 8, !tbaa !3
  %10 = call noundef i64 @_ZNSt14numeric_limitsIlE3maxEv() #3
  %11 = load i64, ptr %4, align 8, !tbaa !3
  %12 = sub nsw i64 %10, %11
  %13 = icmp sgt i64 %9, %12
  br i1 %13, label %14, label %16

14:                                               ; preds = %8
  %15 = call noundef i64 @_ZNSt14numeric_limitsIlE3maxEv() #3
  store i64 %15, ptr %3, align 8
  br label %30

16:                                               ; preds = %8
  br label %26

17:                                               ; preds = %2
  %18 = load i64, ptr %5, align 8, !tbaa !3
  %19 = call noundef i64 @_ZNSt14numeric_limitsIlE3minEv() #3
  %20 = load i64, ptr %4, align 8, !tbaa !3
  %21 = sub nsw i64 %19, %20
  %22 = icmp slt i64 %18, %21
  br i1 %22, label %23, label %25

23:                                               ; preds = %17
  %24 = call noundef i64 @_ZNSt14numeric_limitsIlE3minEv() #3
  store i64 %24, ptr %3, align 8
  br label %30

25:                                               ; preds = %17
  br label %26

26:                                               ; preds = %25, %16
  %27 = load i64, ptr %4, align 8, !tbaa !3
  %28 = load i64, ptr %5, align 8, !tbaa !3
  %29 = add nsw i64 %27, %28
  store i64 %29, ptr %3, align 8
  br label %30

30:                                               ; preds = %26, %23, %14
  %31 = load i64, ptr %3, align 8
  ret i64 %31
}

; Function Attrs: mustprogress nounwind uwtable
define linkonce_odr noundef i64 @_ZNSt14numeric_limitsIlE3minEv() #10 comdat align 2 {
  ret i64 -9223372036854775808
}

; Function Attrs: mustprogress nounwind uwtable
define linkonce_odr noundef i64 @_ZNSt14numeric_limitsIlE3maxEv() #10 comdat align 2 {
  ret i64 9223372036854775807
}

; Function Attrs: mustprogress uwtable
define linkonce_odr i64 @_ZN9grpc_core9Timestamp33FromMillisecondsAfterProcessEpochEl(i64 noundef %0) #4 comdat align 2 {
  %2 = alloca %"class.grpc_core::Timestamp", align 8
  %3 = alloca i64, align 8
  store i64 %0, ptr %3, align 8, !tbaa !3
  %4 = load i64, ptr %3, align 8, !tbaa !3
  call void @_ZN9grpc_core9TimestampC2El(ptr noundef nonnull align 8 dereferenceable(8) %2, i64 noundef %4)
  %5 = getelementptr inbounds nuw %"class.grpc_core::Timestamp", ptr %2, i32 0, i32 0
  %6 = load i64, ptr %5, align 8
  ret i64 %6
}

; Function Attrs: inlinehint mustprogress uwtable
define linkonce_odr noundef i64 @_ZN9grpc_core11time_detail9MillisAddEll(i64 noundef %0, i64 noundef %1) #5 comdat {
  %3 = alloca i64, align 8
  %4 = alloca i64, align 8
  %5 = alloca i64, align 8
  store i64 %0, ptr %4, align 8, !tbaa !3
  store i64 %1, ptr %5, align 8, !tbaa !3
  %6 = load i64, ptr %4, align 8, !tbaa !3
  %7 = call noundef i64 @_ZNSt14numeric_limitsIlE3maxEv() #3
  %8 = icmp eq i64 %6, %7
  br i1 %8, label %13, label %9

9:                                                ; preds = %2
  %10 = load i64, ptr %5, align 8, !tbaa !3
  %11 = call noundef i64 @_ZNSt14numeric_limitsIlE3maxEv() #3
  %12 = icmp eq i64 %10, %11
  br i1 %12, label %13, label %15

13:                                               ; preds = %9, %2
  %14 = call noundef i64 @_ZNSt14numeric_limitsIlE3maxEv() #3
  store i64 %14, ptr %3, align 8
  br label %29

15:                                               ; preds = %9
  %16 = load i64, ptr %4, align 8, !tbaa !3
  %17 = call noundef i64 @_ZNSt14numeric_limitsIlE3minEv() #3
  %18 = icmp eq i64 %16, %17
  br i1 %18, label %23, label %19

19:                                               ; preds = %15
  %20 = load i64, ptr %5, align 8, !tbaa !3
  %21 = call noundef i64 @_ZNSt14numeric_limitsIlE3minEv() #3
  %22 = icmp eq i64 %20, %21
  br i1 %22, label %23, label %25

23:                                               ; preds = %19, %15
  %24 = call noundef i64 @_ZNSt14numeric_limitsIlE3minEv() #3
  store i64 %24, ptr %3, align 8
  br label %29

25:                                               ; preds = %19
  %26 = load i64, ptr %4, align 8, !tbaa !3
  %27 = load i64, ptr %5, align 8, !tbaa !3
  %28 = call noundef i64 @_ZN9grpc_core13SaturatingAddIlEET_S1_S1_(i64 noundef %26, i64 noundef %27)
  store i64 %28, ptr %3, align 8
  br label %29

29:                                               ; preds = %25, %23, %13
  %30 = load i64, ptr %3, align 8
  ret i64 %30
}

; Function Attrs: mustprogress nounwind uwtable
define linkonce_odr noundef i64 @_ZNK9grpc_core8Duration6millisEv(ptr noundef nonnull align 8 dereferenceable(8) %0) #10 comdat align 2 {
  %2 = alloca ptr, align 8
  store ptr %0, ptr %2, align 8, !tbaa !24
  %3 = load ptr, ptr %2, align 8
  %4 = getelementptr inbounds nuw %"class.grpc_core::Duration", ptr %3, i32 0, i32 0
  %5 = load i64, ptr %4, align 8, !tbaa !80
  ret i64 %5
}

; Function Attrs: mustprogress nounwind uwtable
define linkonce_odr noundef i64 @_ZNK9grpc_core9Timestamp32milliseconds_after_process_epochEv(ptr noundef nonnull align 8 dereferenceable(8) %0) #10 comdat align 2 {
  %2 = alloca ptr, align 8
  store ptr %0, ptr %2, align 8, !tbaa !76
  %3 = load ptr, ptr %2, align 8
  %4 = getelementptr inbounds nuw %"class.grpc_core::Timestamp", ptr %3, i32 0, i32 0
  %5 = load i64, ptr %4, align 8, !tbaa !78
  ret i64 %5
}

; Function Attrs: mustprogress nounwind uwtable
define linkonce_odr noundef zeroext i1 @_ZNK9grpc_core8DurationltES0_(ptr noundef nonnull align 8 dereferenceable(8) %0, i64 %1) #10 comdat align 2 {
  %3 = alloca %"class.grpc_core::Duration", align 8
  %4 = alloca ptr, align 8
  %5 = getelementptr inbounds nuw %"class.grpc_core::Duration", ptr %3, i32 0, i32 0
  store i64 %1, ptr %5, align 8
  store ptr %0, ptr %4, align 8, !tbaa !24
  %6 = load ptr, ptr %4, align 8
  %7 = getelementptr inbounds nuw %"class.grpc_core::Duration", ptr %6, i32 0, i32 0
  %8 = load i64, ptr %7, align 8, !tbaa !80
  %9 = getelementptr inbounds nuw %"class.grpc_core::Duration", ptr %3, i32 0, i32 0
  %10 = load i64, ptr %9, align 8, !tbaa !80
  %11 = icmp slt i64 %8, %10
  ret i1 %11
}

; Function Attrs: mustprogress nounwind uwtable
define linkonce_odr void @_ZN9grpc_core8DurationC2El(ptr noundef nonnull align 8 dereferenceable(8) %0, i64 noundef %1) unnamed_addr #10 comdat align 2 {
  %3 = alloca ptr, align 8
  %4 = alloca i64, align 8
  store ptr %0, ptr %3, align 8, !tbaa !24
  store i64 %1, ptr %4, align 8, !tbaa !3
  %5 = load ptr, ptr %3, align 8
  %6 = getelementptr inbounds nuw %"class.grpc_core::Duration", ptr %5, i32 0, i32 0
  %7 = load i64, ptr %4, align 8, !tbaa !3
  store i64 %7, ptr %6, align 8, !tbaa !80
  ret void
}

; Function Attrs: inlinehint mustprogress uwtable
define linkonce_odr i64 @_ZN9grpc_coreplENS_9TimestampENS_8DurationE(i64 %0, i64 %1) #5 comdat {
  %3 = alloca %"class.grpc_core::Timestamp", align 8
  %4 = alloca %"class.grpc_core::Timestamp", align 8
  %5 = alloca %"class.grpc_core::Duration", align 8
  %6 = getelementptr inbounds nuw %"class.grpc_core::Timestamp", ptr %4, i32 0, i32 0
  store i64 %0, ptr %6, align 8
  %7 = getelementptr inbounds nuw %"class.grpc_core::Duration", ptr %5, i32 0, i32 0
  store i64 %1, ptr %7, align 8
  %8 = call noundef i64 @_ZNK9grpc_core9Timestamp32milliseconds_after_process_epochEv(ptr noundef nonnull align 8 dereferenceable(8) %4)
  %9 = call noundef i64 @_ZNK9grpc_core8Duration6millisEv(ptr noundef nonnull align 8 dereferenceable(8) %5)
  %10 = call noundef i64 @_ZN9grpc_core11time_detail9MillisAddEll(i64 noundef %8, i64 noundef %9)
  %11 = call i64 @_ZN9grpc_core9Timestamp33FromMillisecondsAfterProcessEpochEl(i64 noundef %10)
  %12 = getelementptr inbounds nuw %"class.grpc_core::Timestamp", ptr %3, i32 0, i32 0
  store i64 %11, ptr %12, align 8
  %13 = getelementptr inbounds nuw %"class.grpc_core::Timestamp", ptr %3, i32 0, i32 0
  %14 = load i64, ptr %13, align 8
  ret i64 %14
}

; Function Attrs: inlinehint mustprogress uwtable
define linkonce_odr noundef nonnull align 8 dereferenceable(8) ptr @_ZSt3maxIN9grpc_core8DurationEERKT_S4_S4_(ptr noundef nonnull align 8 dereferenceable(8) %0, ptr noundef nonnull align 8 dereferenceable(8) %1) #5 comdat {
  %3 = alloca ptr, align 8
  %4 = alloca ptr, align 8
  %5 = alloca ptr, align 8
  %6 = alloca %"class.grpc_core::Duration", align 8
  store ptr %0, ptr %4, align 8, !tbaa !24
  store ptr %1, ptr %5, align 8, !tbaa !24
  %7 = load ptr, ptr %4, align 8, !tbaa !24
  %8 = load ptr, ptr %5, align 8, !tbaa !24
  call void @llvm.memcpy.p0.p0.i64(ptr align 8 %6, ptr align 8 %8, i64 8, i1 false), !tbaa.struct !23
  %9 = getelementptr inbounds nuw %"class.grpc_core::Duration", ptr %6, i32 0, i32 0
  %10 = load i64, ptr %9, align 8
  %11 = call noundef zeroext i1 @_ZNK9grpc_core8DurationltES0_(ptr noundef nonnull align 8 dereferenceable(8) %7, i64 %10)
  br i1 %11, label %12, label %14

12:                                               ; preds = %2
  %13 = load ptr, ptr %5, align 8, !tbaa !24
  store ptr %13, ptr %3, align 8
  br label %16

14:                                               ; preds = %2
  %15 = load ptr, ptr %4, align 8, !tbaa !24
  store ptr %15, ptr %3, align 8
  br label %16

16:                                               ; preds = %14, %12
  %17 = load ptr, ptr %3, align 8
  ret ptr %17
}

; Function Attrs: mustprogress uwtable
define linkonce_odr i64 @_ZN9grpc_core8Duration18NanosecondsRoundUpEl(i64 noundef %0) #4 comdat align 2 {
  %2 = alloca %"class.grpc_core::Duration", align 8
  %3 = alloca i64, align 8
  store i64 %0, ptr %3, align 8, !tbaa !3
  %4 = load i64, ptr %3, align 8, !tbaa !3
  %5 = sdiv i64 %4, 1000000
  %6 = load i64, ptr %3, align 8, !tbaa !3
  %7 = srem i64 %6, 1000000
  %8 = icmp ne i64 %7, 0
  %9 = zext i1 %8 to i64
  %10 = add nsw i64 %5, %9
  call void @_ZN9grpc_core8DurationC2El(ptr noundef nonnull align 8 dereferenceable(8) %2, i64 noundef %10)
  %11 = getelementptr inbounds nuw %"class.grpc_core::Duration", ptr %2, i32 0, i32 0
  %12 = load i64, ptr %11, align 8
  ret i64 %12
}

; Function Attrs: mustprogress nounwind uwtable
define linkonce_odr noundef i64 @_ZNKSt6chrono8durationIlSt5ratioILl1ELl1000000000EEE5countEv(ptr noundef nonnull align 8 dereferenceable(8) %0) #10 comdat align 2 {
  %2 = alloca ptr, align 8
  store ptr %0, ptr %2, align 8, !tbaa !26
  %3 = load ptr, ptr %2, align 8
  %4 = getelementptr inbounds nuw %"class.std::chrono::duration", ptr %3, i32 0, i32 0
  %5 = load i64, ptr %4, align 8, !tbaa !28
  ret i64 %5
}

; Function Attrs: mustprogress uwtable
define linkonce_odr i64 @_ZN9grpc_core8Duration12MillisecondsEl(i64 noundef %0) #4 comdat align 2 {
  %2 = alloca %"class.grpc_core::Duration", align 8
  %3 = alloca i64, align 8
  store i64 %0, ptr %3, align 8, !tbaa !3
  %4 = load i64, ptr %3, align 8, !tbaa !3
  call void @_ZN9grpc_core8DurationC2El(ptr noundef nonnull align 8 dereferenceable(8) %2, i64 noundef %4)
  %5 = getelementptr inbounds nuw %"class.grpc_core::Duration", ptr %2, i32 0, i32 0
  %6 = load i64, ptr %5, align 8
  ret i64 %6
}

; Function Attrs: mustprogress uwtable
define i64 @_ZN17grpc_event_engine12experimental11ToTimestampEN9grpc_core9TimestampENSt6chrono8durationIlSt5ratioILl1ELl1000000000EEEE(i64 %0, i64 %1) #4 {
  %3 = alloca %"class.grpc_core::Timestamp", align 8
  %4 = alloca %"class.grpc_core::Timestamp", align 8
  %5 = alloca %"class.std::chrono::duration", align 8
  %6 = alloca %"class.grpc_core::Timestamp", align 8
  %7 = alloca %"class.grpc_core::Timestamp", align 8
  %8 = alloca %"class.grpc_core::Duration", align 8
  %9 = alloca %"class.grpc_core::Duration", align 8
  %10 = alloca %"class.grpc_core::Duration", align 8
  %11 = alloca %"class.grpc_core::Duration", align 8
  %12 = getelementptr inbounds nuw %"class.grpc_core::Timestamp", ptr %4, i32 0, i32 0
  store i64 %0, ptr %12, align 8
  %13 = getelementptr inbounds nuw %"class.std::chrono::duration", ptr %5, i32 0, i32 0
  store i64 %1, ptr %13, align 8
  call void @llvm.memcpy.p0.p0.i64(ptr align 8 %7, ptr align 8 %4, i64 8, i1 false), !tbaa.struct !23
  call void @llvm.lifetime.start.p0(i64 8, ptr %9) #3
  %14 = call i64 @_ZN9grpc_core8Duration12MillisecondsEl(i64 noundef 1)
  %15 = getelementptr inbounds nuw %"class.grpc_core::Duration", ptr %9, i32 0, i32 0
  store i64 %14, ptr %15, align 8
  call void @llvm.lifetime.start.p0(i64 8, ptr %10) #3
  %16 = call noundef i64 @_ZNKSt6chrono8durationIlSt5ratioILl1ELl1000000000EEE5countEv(ptr noundef nonnull align 8 dereferenceable(8) %5)
  %17 = call i64 @_ZN9grpc_core8Duration18NanosecondsRoundUpEl(i64 noundef %16)
  %18 = getelementptr inbounds nuw %"class.grpc_core::Duration", ptr %10, i32 0, i32 0
  store i64 %17, ptr %18, align 8
  %19 = call noundef nonnull align 8 dereferenceable(8) ptr @_ZSt3maxIN9grpc_core8DurationEERKT_S4_S4_(ptr noundef nonnull align 8 dereferenceable(8) %9, ptr noundef nonnull align 8 dereferenceable(8) %10)
  call void @llvm.memcpy.p0.p0.i64(ptr align 8 %8, ptr align 8 %19, i64 8, i1 false), !tbaa.struct !23
  %20 = getelementptr inbounds nuw %"class.grpc_core::Timestamp", ptr %7, i32 0, i32 0
  %21 = load i64, ptr %20, align 8
  %22 = getelementptr inbounds nuw %"class.grpc_core::Duration", ptr %8, i32 0, i32 0
  %23 = load i64, ptr %22, align 8
  %24 = call i64 @_ZN9grpc_coreplENS_9TimestampENS_8DurationE(i64 %21, i64 %23)
  %25 = getelementptr inbounds nuw %"class.grpc_core::Timestamp", ptr %6, i32 0, i32 0
  store i64 %24, ptr %25, align 8
  %26 = call i64 @_ZN9grpc_core8Duration12MillisecondsEl(i64 noundef 1)
  %27 = getelementptr inbounds nuw %"class.grpc_core::Duration", ptr %11, i32 0, i32 0
  store i64 %26, ptr %27, align 8
  %28 = getelementptr inbounds nuw %"class.grpc_core::Timestamp", ptr %6, i32 0, i32 0
  %29 = load i64, ptr %28, align 8
  %30 = getelementptr inbounds nuw %"class.grpc_core::Duration", ptr %11, i32 0, i32 0
  %31 = load i64, ptr %30, align 8
  %32 = call i64 @_ZN9grpc_coreplENS_9TimestampENS_8DurationE(i64 %29, i64 %31)
  %33 = getelementptr inbounds nuw %"class.grpc_core::Timestamp", ptr %3, i32 0, i32 0
  store i64 %32, ptr %33, align 8
  call void @llvm.lifetime.end.p0(i64 8, ptr %10) #3
  call void @llvm.lifetime.end.p0(i64 8, ptr %9) #3
  %34 = getelementptr inbounds nuw %"class.grpc_core::Timestamp", ptr %3, i32 0, i32 0
  %35 = load i64, ptr %34, align 8
  ret i64 %35
}