; Function Attrs: mustprogress nofree norecurse nosync nounwind willreturn memory(none) uwtable
define range(i64 -9223372036854775805, -9223372036854775807) i64 @_ZN17grpc_event_engine12experimental11ToTimestampEN9grpc_core9TimestampENSt6chrono8durationIlSt5ratioILl1ELl1000000000EEEE(i64 %0, i64 %1) local_unnamed_addr #6 {
  %3 = sdiv i64 %1, 1000000
  %4 = srem i64 %1, 1000000
  %5 = icmp ne i64 %4, 0
  %6 = zext i1 %5 to i64
  %7 = add nsw i64 %3, %6
  %.sroa.01.0.copyload.sroa.speculated = tail call i64 @llvm.smax.i64(i64 %7, i64 1)
  %.off = add i64 %0, -9223372036854775807
  %switch = icmp ult i64 %.off, 2
  br i1 %switch, label %_ZN9grpc_coreplENS_9TimestampENS_8DurationE.exit9, label %8

8:                                                ; preds = %2
  %9 = icmp sgt i64 %0, 0
  %10 = sub nuw nsw i64 9223372036854775807, %0
  %11 = icmp samesign ugt i64 %.sroa.01.0.copyload.sroa.speculated, %10
  %or.cond = select i1 %9, i1 %11, i1 false
  br i1 %or.cond, label %_ZN9grpc_coreplENS_9TimestampENS_8DurationE.exit9, label %_ZN9grpc_coreplENS_9TimestampENS_8DurationE.exit

_ZN9grpc_coreplENS_9TimestampENS_8DurationE.exit: ; preds = %8
  %12 = add nsw i64 %.sroa.01.0.copyload.sroa.speculated, %0
  %13 = icmp eq i64 %12, 9223372036854775807
  %14 = add nsw i64 %12, 1
  %spec.select = select i1 %13, i64 9223372036854775807, i64 %14
  br label %_ZN9grpc_coreplENS_9TimestampENS_8DurationE.exit9

_ZN9grpc_coreplENS_9TimestampENS_8DurationE.exit9: ; preds = %2, %_ZN9grpc_coreplENS_9TimestampENS_8DurationE.exit, %8
  %.0.i.i8 = phi i64 [ 9223372036854775807, %8 ], [ %spec.select, %_ZN9grpc_coreplENS_9TimestampENS_8DurationE.exit ], [ %0, %2 ]
  ret i64 %.0.i.i8
}